Certificate:
    Data:
        Version: 3 (0x2)
        Serial Number: 4096 (0x1000)
    Signature Algorithm: sha256WithRSAEncryption
        Issuer: C=CR, ST=San Jose, O=Amazin CO., OU=IT, CN=172.24.129.95/emailAddress=adrian.alvarezrodriguez@ucr.ac.cr
        Validity
            Not Before: Oct 15 01:48:26 2019 GMT
            Not After : Jun 30 23:59:59 2033 GMT
        Subject: C=CR, ST=San Jose, O=Amazin CO., OU=IT, CN=172.24.129.95/emailAddress=adrian.alvarezrodriguez@ucr.ac.cr
        Subject Public Key Info:
            Public Key Algorithm: rsaEncryption
                Public-Key: (2048 bit)
                Modulus:
                    00:ba:cd:c9:8d:ed:7d:c6:85:6d:03:52:23:37:15:
                    93:36:6b:d8:a6:0a:b9:8a:10:bc:5d:99:23:c1:c3:
                    64:b3:a0:4d:11:a1:aa:a5:32:08:46:dd:89:65:74:
                    a6:6e:cb:ce:58:b3:d1:de:3b:ba:f7:ad:3e:17:1b:
                    b1:eb:a6:67:6f:7e:85:c6:dc:ca:3f:d5:96:d7:44:
                    2b:6f:27:5d:b4:5b:23:f0:45:cb:ab:88:44:77:81:
                    c5:8f:6c:e7:38:91:d5:79:3d:dd:76:5e:4a:24:cd:
                    2d:7c:bd:7e:f1:06:de:c0:aa:76:2e:dd:c0:d3:03:
                    2f:75:a7:81:a7:61:3d:ba:7c:63:37:08:18:a3:0e:
                    37:e1:dd:0b:7e:5c:a5:47:57:8d:18:45:05:1c:d6:
                    89:84:ec:2d:a7:48:1e:4a:a3:66:18:e0:25:38:9f:
                    34:d6:46:b2:ef:c2:10:70:c9:a4:7c:08:f3:d3:75:
                    fe:9d:86:18:72:1f:6b:22:36:0a:a7:ff:96:9a:c1:
                    45:b9:9b:97:0c:03:c3:98:2b:97:39:13:48:b6:34:
                    93:d6:23:de:44:5d:67:5a:25:92:27:5c:cf:8e:a5:
                    db:ee:67:28:7f:8b:f9:61:4d:fd:e2:b6:74:1c:42:
                    26:78:c1:77:17:ca:bc:4c:f3:68:47:29:63:a9:74:
                    db:11
                Exponent: 65537 (0x10001)
        X509v3 extensions:
            X509v3 Subject Key Identifier: 
                B4:F4:46:2C:94:3E:32:E1:BF:0E:1D:39:72:E0:31:75:03:C9:A8:86
            X509v3 Authority Key Identifier: 
                keyid:B4:F4:46:2C:94:3E:32:E1:BF:0E:1D:39:72:E0:31:75:03:C9:A8:86

            X509v3 Basic Constraints: 
                CA:TRUE
    Signature Algorithm: sha256WithRSAEncryption
         68:b8:84:18:35:cd:16:a1:c7:88:0c:5b:89:27:bc:75:60:d9:
         4b:4b:be:24:d3:1c:e3:5a:3e:9d:fe:28:46:83:29:51:ac:82:
         7d:73:dc:5d:e6:d6:76:2f:0c:8f:2d:8b:0f:20:4d:76:4f:14:
         ca:c0:8e:43:f2:84:fd:b7:01:25:16:71:72:ec:03:3d:19:31:
         ad:6a:e0:49:da:49:95:2d:70:f6:ca:3c:06:53:86:c2:d3:7e:
         ae:42:05:0d:4f:ce:e3:64:d0:4d:90:b3:d5:c7:a8:a8:d7:7c:
         a7:5e:9b:c4:5e:b6:3c:ba:f7:d5:4c:31:bc:63:d2:2f:da:3c:
         1d:3f:17:f5:cb:fa:47:b1:ca:3a:82:cf:22:14:54:c1:83:49:
         51:fd:cb:c7:f5:bc:1b:b3:cd:e1:12:c1:5c:d7:57:92:c7:bd:
         53:1d:d1:b3:ba:b4:83:34:98:1b:29:68:8f:85:e8:dd:ea:7c:
         81:70:63:b0:13:43:eb:47:3c:8a:f8:28:8f:ec:94:d6:66:aa:
         d0:ac:0e:1a:55:73:da:de:88:8f:60:e7:0e:81:82:ca:5e:bb:
         69:d9:5a:e6:c1:fa:55:f8:1b:f5:5b:61:91:5e:2d:f3:74:cb:
         4e:a0:23:d6:03:f5:4d:c5:78:8a:66:79:78:52:0c:42:dd:09:
         be:f0:80:b3
-----BEGIN CERTIFICATE-----
MIID5jCCAs6gAwIBAgICEAAwDQYJKoZIhvcNAQELBQAwgYwxCzAJBgNVBAYTAkNS
MREwDwYDVQQIDAhTYW4gSm9zZTETMBEGA1UECgwKQW1hemluIENPLjELMAkGA1UE
CwwCSVQxFjAUBgNVBAMMDTE3Mi4yNC4xMjkuOTUxMDAuBgkqhkiG9w0BCQEWIWFk
cmlhbi5hbHZhcmV6cm9kcmlndWV6QHVjci5hYy5jcjAeFw0xOTEwMTUwMTQ4MjZa
Fw0zMzA2MzAyMzU5NTlaMIGMMQswCQYDVQQGEwJDUjERMA8GA1UECAwIU2FuIEpv
c2UxEzARBgNVBAoMCkFtYXppbiBDTy4xCzAJBgNVBAsMAklUMRYwFAYDVQQDDA0x
NzIuMjQuMTI5Ljk1MTAwLgYJKoZIhvcNAQkBFiFhZHJpYW4uYWx2YXJlenJvZHJp
Z3VlekB1Y3IuYWMuY3IwggEiMA0GCSqGSIb3DQEBAQUAA4IBDwAwggEKAoIBAQC6
zcmN7X3GhW0DUiM3FZM2a9imCrmKELxdmSPBw2SzoE0RoaqlMghG3YlldKZuy85Y
s9HeO7r3rT4XG7HrpmdvfoXG3Mo/1ZbXRCtvJ120WyPwRcuriER3gcWPbOc4kdV5
Pd12XkokzS18vX7xBt7AqnYu3cDTAy91p4GnYT26fGM3CBijDjfh3Qt+XKVHV40Y
RQUc1omE7C2nSB5Ko2YY4CU4nzTWRrLvwhBwyaR8CPPTdf6dhhhyH2siNgqn/5aa
wUW5m5cMA8OYK5c5E0i2NJPWI95EXWdaJZInXM+OpdvuZyh/i/lhTf3itnQcQiZ4
wXcXyrxM82hHKWOpdNsRAgMBAAGjUDBOMB0GA1UdDgQWBBS09EYslD4y4b8OHTly
4DF1A8mohjAfBgNVHSMEGDAWgBS09EYslD4y4b8OHTly4DF1A8mohjAMBgNVHRME
BTADAQH/MA0GCSqGSIb3DQEBCwUAA4IBAQBouIQYNc0WoceIDFuJJ7x1YNlLS74k
0xzjWj6d/ihGgylRrIJ9c9xd5tZ2LwyPLYsPIE12TxTKwI5D8oT9twElFnFy7AM9
GTGtauBJ2kmVLXD2yjwGU4bC036uQgUNT87jZNBNkLPVx6io13ynXpvEXrY8uvfV
TDG8Y9Iv2jwdPxf1y/pHsco6gs8iFFTBg0lR/cvH9bwbs83hEsFc11eSx71THdGz
urSDNJgbKWiPhejd6nyBcGOwE0PrRzyK+CiP7JTWZqrQrA4aVXPa3oiPYOcOgYLK
Xrtp2VrmwfpV+Bv1W2GRXi3zdMtOoCPWA/VNxXiKZnl4UgxC3Qm+8ICz
-----END CERTIFICATE-----
